(dp0
S'cookies'
p1
(dp2
S'wxloadtime'
p3
S'1516878739'
p4
sS'webwx_data_ticket'
p5
S'gSe1Ofy0ikBgfYEx4HkbF0qb'
p6
sS'wxuin'
p7
S'1381777820'
p8
sS'login_frequency'
p9
S'2'
p10
sS'MM_WX_NOTIFY_STATE'
p11
S'1'
p12
sS'MM_WX_SOUND_STATE'
p13
g12
sS'webwx_auth_ticket'
p14
S'CIsBEMqS4tENGoABGrjD2ooCRY7pTyrpcbpSoovtuHPc2Tw8YMXJLexX+0+q9J+o08A/JsDUGGGr0WCXmEC5mRTMhaljaIMYLvCIsfHPKbUj4D97XzhA3Uxb+yYz0cMI4FzEmq+o4sipXkTBsWH1Qbl036omzLyzszZfolHvwK6MuUO4hO10aOKM93Y='
p15
sS'last_wxuin'
p16
S'1381777820'
p17
sS'webwxuvid'
p18
S'eaed039a7e804b32bfc04fe91ceb6bdca35b79aedfaf80fce951eda789c250fbbe4d6d522f1f9f917cf48eb3fc355d7e'
p19
sS'wxpluginkey'
p20
S'1516877752'
p21
sS'wxsid'
p22
S'bYep9l66fn52Dv9C'
p23
sS'mm_lang'
p24
S'zh_CN'
p25
ssS'version'
p26
S'1.3.10'
p27
sS'storage'
p28
(dp29
S'userName'
p30
V@a5806e9bc8a820d87a4b95a5d65ab9cd
p31
sS'lastInputUserName'
p32
NsS'memberList'
p33
ccopy_reg
_reconstructor
p34
(citchat.storage.templates
ContactList
p35
c__builtin__
list
p36
(lp37
g34
(citchat.storage.templates
User
p38
c__builtin__
dict
p39
(dp40
S'UserName'
p41
g31
sS'City'
p42
S''
p43
sS'DisplayName'
p44
g43
sS'UniFriend'
p45
I0
sS'OwnerUin'
p46
I0
sS'MemberList'
p47
g34
(g35
g36
(lp48
tp49
Rp50
I1
bsS'PYQuanPin'
p51
V
p52
sS'RemarkPYInitial'
p53
g52
sS'Uin'
p54
I1381777820
sS'AppAccountFlag'
p55
I0
sS'VerifyFlag'
p56
I0
sS'Province'
p57
g43
sS'KeyWord'
p58
g43
sS'RemarkName'
p59
g52
sS'PYInitial'
p60
g52
sS'ChatRoomId'
p61
I0
sS'HideInputBarFlag'
p62
I0
sVHeadImgFlag
p63
I1
sS'EncryChatRoomId'
p64
g43
sS'AttrStatus'
p65
I0
sS'SnsFlag'
p66
I49
sS'MemberCount'
p67
I0
sVWebWxPluginSwitch
p68
I0
sS'Alias'
p69
g43
sS'Signature'
p70
g52
sS'ContactFlag'
p71
I0
sS'NickName'
p72
VAlex
p73
sS'RemarkPYQuanPin'
p74
g52
sS'HeadImgUrl'
p75
V/cgi-bin/mmwebwx-bin/webwxgeticon?seq=236507309&username=@a5806e9bc8a820d87a4b95a5d65ab9cd&skey=@crypt_ad68d827_8252494760d3ea552c903e9d1b24eb1a
p76
sS'Sex'
p77
I2
sS'StarFriend'
p78
I0
sS'Statues'
p79
I0
stp80
Rp81
I1
bag34
(g38
g39
(dp82
VUserName
p83
V@004477e3a2ac8892376adb4129fbd89f
p84
sVCity
p85
V\u957f\u6c99
p86
sVSnsFlag
p87
I177
sVDisplayName
p88
g52
sVUniFriend
p89
I0
sVMemberCount
p90
I0
sVOwnerUin
p91
I0
sVMemberList
p92
g50
sVAlias
p93
g52
sVPYQuanPin
p94
VTrevor
p95
sVSignature
p96
g52
sVRemarkPYInitial
p97
g52
sVContactFlag
p98
I2051
sVUin
p99
I0
sVNickName
p100
VTrevor
p101
sVAppAccountFlag
p102
I0
sVVerifyFlag
p103
I0
sVRemarkPYQuanPin
p104
g52
sVHeadImgUrl
p105
V/cgi-bin/mmwebwx-bin/webwxgeticon?seq=663301742&username=@004477e3a2ac8892376adb4129fbd89f&skey=@crypt_ad68d827_8252494760d3ea552c903e9d1b24eb1a
p106
sVKeyWord
p107
Vwa2
p108
sVProvince
p109
V\u6e56\u5357
p110
sVPYInitial
p111
VTREVOR
p112
sVRemarkName
p113
g52
sVIsOwner
p114
I0
sVSex
p115
I1
sVStarFriend
p116
I0
sVHideInputBarFlag
p117
I0
sVChatRoomId
p118
I0
sVEncryChatRoomId
p119
g52
sVAttrStatus
p120
I2147549541
sVStatues
p121
I0
stp122
Rp123
I1
bag34
(g38
g39
(dp124
VUserName
p125
V@7e4513415cbe35f37fef57917e134a7e
p126
sVCity
p127
V\u957f\u6c99
p128
sVSnsFlag
p129
I17
sVDisplayName
p130
g52
sVUniFriend
p131
I0
sVMemberCount
p132
I0
sVOwnerUin
p133
I0
sVMemberList
p134
g50
sVAlias
p135
g52
sVPYQuanPin
p136
Vhaojiubujian
p137
sVSignature
p138
g52
sVRemarkPYInitial
p139
g52
sVContactFlag
p140
I1
sVUin
p141
I0
sVNickName
p142
V\u597d\u4e45\u4e0d\u89c1\uff01
p143
sVAppAccountFlag
p144
I0
sVVerifyFlag
p145
I0
sVRemarkPYQuanPin
p146
g52
sVHeadImgUrl
p147
V/cgi-bin/mmwebwx-bin/webwxgeticon?seq=663291514&username=@7e4513415cbe35f37fef57917e134a7e&skey=@crypt_ad68d827_8252494760d3ea552c903e9d1b24eb1a
p148
sVKeyWord
p149
Vcjx
p150
sVProvince
p151
V\u6e56\u5357
p152
sVPYInitial
p153
VHJBJ
p154
sVRemarkName
p155
g52
sVIsOwner
p156
I0
sVSex
p157
I1
sVStarFriend
p158
I0
sVHideInputBarFlag
p159
I0
sVChatRoomId
p160
I0
sVEncryChatRoomId
p161
g52
sVAttrStatus
p162
I229823
sVStatues
p163
I0
stp164
Rp165
I1
bag34
(g38
g39
(dp166
VUserName
p167
V@161dd8539102b91ea339e7facaf3883a
p168
sVCity
p169
V\u957f\u6c99
p170
sVSnsFlag
p171
I17
sVDisplayName
p172
g52
sVUniFriend
p173
I0
sVMemberCount
p174
I0
sVOwnerUin
p175
I0
sVMemberList
p176
g50
sVAlias
p177
g52
sVPYQuanPin
p178
Vhaiyangzhixing
p179
sVSignature
p180
V\u628a\u63e1\u4e92\u8054\u7f51\uff0c\u5b66\u4e60\u5927\u6570\u636e\uff01\u8ddf\u4e0a\u65f6\u4ee3\u7684\u811a\u6b65\uff01\u5c0f\u4f19\u4f34\u4eec\uff0c\u4e00\u8d77\u52a0\u6cb9\u5427
p181
sVRemarkPYInitial
p182
g52
sVContactFlag
p183
I3
sVUin
p184
I0
sVNickName
p185
V\u6d77\u6d0b\u4e4b\u661f
p186
sVAppAccountFlag
p187
I0
sVVerifyFlag
p188
I0
sVRemarkPYQuanPin
p189
g52
sVHeadImgUrl
p190
V/cgi-bin/mmwebwx-bin/webwxgeticon?seq=653352160&username=@161dd8539102b91ea339e7facaf3883a&skey=@crypt_ad68d827_8252494760d3ea552c903e9d1b24eb1a
p191
sVKeyWord
p192
Vjoy
p193
sVProvince
p194
V\u6e56\u5357
p195
sVPYInitial
p196
VHYZX
p197
sVRemarkName
p198
g52
sVIsOwner
p199
I0
sVSex
p200
I1
sVStarFriend
p201
I0
sVHideInputBarFlag
p202
I0
sVChatRoomId
p203
I0
sVEncryChatRoomId
p204
g52
sVAttrStatus
p205
I102503
sVStatues
p206
I0
stp207
Rp208
I1
bag34
(g38
g39
(dp209
VUserName
p210
V@e9acfb3d1b20583069b1a114935837875cc94c5052f6c0d87198a3012568055e
p211
sVCity
p212
V\u957f\u6c99
p213
sVSnsFlag
p214
I1
sVDisplayName
p215
g52
sVUniFriend
p216
I0
sVMemberCount
p217
I0
sVOwnerUin
p218
I0
sVMemberList
p219
g50
sVAlias
p220
g52
sVPYQuanPin
p221
VAtangbaochongwu15802507238
p222
sVSignature
p223
g52
sVRemarkPYInitial
p224
VTJ
p225
sVContactFlag
p226
I3
sVUin
p227
I0
sVNickName
p228
VA\u7cd6\u5b9d\u5ba0\u7269-15802507238
p229
sVAppAccountFlag
p230
I0
sVVerifyFlag
p231
I0
sVRemarkPYQuanPin
p232
Vtangjie
p233
sVHeadImgUrl
p234
V/cgi-bin/mmwebwx-bin/webwxgeticon?seq=663298000&username=@e9acfb3d1b20583069b1a114935837875cc94c5052f6c0d87198a3012568055e&skey=@crypt_ad68d827_8252494760d3ea552c903e9d1b24eb1a
p235
sVKeyWord
p236
g52
sVProvince
p237
V\u6e56\u5357
p238
sVPYInitial
p239
VATBCW15802507238
p240
sVRemarkName
p241
V\u5510\u59d0
p242
sVIsOwner
p243
I0
sVSex
p244
I2
sVStarFriend
p245
I0
sVHideInputBarFlag
p246
I0
sVChatRoomId
p247
I0
sVEncryChatRoomId
p248
g52
sVAttrStatus
p249
I233797
sVStatues
p250
I0
stp251
Rp252
I1
bag34
(g38
g39
(dp253
VUserName
p254
V@6aecea0b9467617d777d528c52130cd2
p255
sVCity
p256
V\u957f\u6c99
p257
sVSnsFlag
p258
I49
sVDisplayName
p259
g52
sVUniFriend
p260
I0
sVMemberCount
p261
I0
sVOwnerUin
p262
I0
sVMemberList
p263
g50
sVAlias
p264
g52
sVPYQuanPin
p265
Vlongxiaoxiaospanclassemojiemoji1f46fspanspanclassemojiemoji1f46fspan
p266
sVSignature
p267
V\u5f97\u672a\u66fe\u6709\u3002
p268
sVRemarkPYInitial
p269
g52
sVContactFlag
p270
I3
sVUin
p271
I0
sVNickName
p272
V\u73d1\u5c0f\u5c0f\U0001f46f\U0001f46f
p273
sVAppAccountFlag
p274
I0
sVVerifyFlag
p275
I0
sVRemarkPYQuanPin
p276
g52
sVHeadImgUrl
p277
V/cgi-bin/mmwebwx-bin/webwxgeticon?seq=663300935&username=@6aecea0b9467617d777d528c52130cd2&skey=@crypt_ad68d827_8252494760d3ea552c903e9d1b24eb1a
p278
sVKeyWord
p279
Vsel
p280
sVProvince
p281
V\u6e56\u5357
p282
sVPYInitial
p283
VLXXSPANCLASSEMOJIEMOJI1F46FSPANSPANCLASSEMOJIEMOJI1F46FSPAN
p284
sVRemarkName
p285
g52
sVIsOwner
p286
I0
sVSex
p287
I2
sVStarFriend
p288
I0
sVHideInputBarFlag
p289
I0
sVChatRoomId
p290
I0
sVEncryChatRoomId
p291
g52
sVAttrStatus
p292
I105471
sVStatues
p293
I0
stp294
Rp295
I1
bag34
(g38
g39
(dp296
VUserName
p297
V@ffcab753479c301dff351062d135fe3c685be5ea291df5da9ffa8d3a8b7a25bf
p298
sVCity
p299
V\u957f\u6c99
p300
sVSnsFlag
p301
I49
sVDisplayName
p302
g52
sVUniFriend
p303
I0
sVMemberCount
p304
I0
sVOwnerUin
p305
I0
sVMemberList
p306
g50
sVAlias
p307
g52
sVPYQuanPin
p308
VLynnyanglingyuspanclassemojiemoji1f431span
p309
sVSignature
p310
g52
sVRemarkPYInitial
p311
g52
sVContactFlag
p312
I1
sVUin
p313
I0
sVNickName
p314
VLynn_\u6768\u73b2\u7389\U0001f431
p315
sVAppAccountFlag
p316
I0
sVVerifyFlag
p317
I0
sVRemarkPYQuanPin
p318
g52
sVHeadImgUrl
p319
V/cgi-bin/mmwebwx-bin/webwxgeticon?seq=663301079&username=@ffcab753479c301dff351062d135fe3c685be5ea291df5da9ffa8d3a8b7a25bf&skey=@crypt_ad68d827_8252494760d3ea552c903e9d1b24eb1a
p320
sVKeyWord
p321
Vyan
p322
sVProvince
p323
V\u6e56\u5357
p324
sVPYInitial
p325
VLYNNYLYSPANCLASSEMOJIEMOJI1F431SPAN
p326
sVRemarkName
p327
g52
sVIsOwner
p328
I0
sVSex
p329
I2
sVStarFriend
p330
I0
sVHideInputBarFlag
p331
I0
sVChatRoomId
p332
I0
sVEncryChatRoomId
p333
g52
sVAttrStatus
p334
I111717
sVStatues
p335
I0
stp336
Rp337
I1
bag34
(g38
g39
(dp338
VUserName
p339
V@4ef45478cfdf5b644a35fa066d2fc4ff7f5f365093d32b5563795fc99373c70a
p340
sVCity
p341
V\u957f\u6c99
p342
sVSnsFlag
p343
I49
sVDisplayName
p344
g52
sVUniFriend
p345
I0
sVMemberCount
p346
I0
sVOwnerUin
p347
I0
sVMemberList
p348
g50
sVAlias
p349
g52
sVPYQuanPin
p350
VAspanclassemojiemoji1f42bspanxiangzi
p351
sVSignature
p352
V\u624b\u673a\u7ef4\u4fee
p353
sVRemarkPYInitial
p354
g52
sVContactFlag
p355
I32771
sVUin
p356
I0
sVNickName
p357
VA \U0001f42b\u7965\u5b50
p358
sVAppAccountFlag
p359
I0
sVVerifyFlag
p360
I0
sVRemarkPYQuanPin
p361
g52
sVHeadImgUrl
p362
V/cgi-bin/mmwebwx-bin/webwxgeticon?seq=663301565&username=@4ef45478cfdf5b644a35fa066d2fc4ff7f5f365093d32b5563795fc99373c70a&skey=@crypt_ad68d827_8252494760d3ea552c903e9d1b24eb1a
p363
sVKeyWord
p364
Vliu
p365
sVProvince
p366
V\u6e56\u5357
p367
sVPYInitial
p368
VASPANCLASSEMOJIEMOJI1F42BSPANXZ
p369
sVRemarkName
p370
g52
sVIsOwner
p371
I0
sVSex
p372
I1
sVStarFriend
p373
I0
sVHideInputBarFlag
p374
I0
sVChatRoomId
p375
I0
sVEncryChatRoomId
p376
g52
sVAttrStatus
p377
I100763751
sVStatues
p378
I0
stp379
Rp380
I1
bag34
(g38
g39
(dp381
VUserName
p382
V@7a8246a48903f7cabc028368c1e69413b744916bbca04dca9bdcbfca649535d2
p383
sVCity
p384
V\u957f\u6c99
p385
sVSnsFlag
p386
I49
sVDisplayName
p387
g52
sVUniFriend
p388
I0
sVMemberCount
p389
I0
sVOwnerUin
p390
I0
sVMemberList
p391
g50
sVAlias
p392
g52
sVPYQuanPin
p393
Vxiaomibaobao
p394
sVSignature
p395
V\u5de1\u6e38\u5728\u591c\u6df1\u8857\u4e2d\u64e6\u80a9\uff0c\u4f60\u6211\u4e5f\u53ea\u5dee\u4e00\u5206\u543b\u5728\u8138\uff5e\uff5e\uff5e
p396
sVRemarkPYInitial
p397
g52
sVContactFlag
p398
I3
sVUin
p399
I0
sVNickName
p400
V\u5c0f\u7c73\u5b9d\u5b9d
p401
sVAppAccountFlag
p402
I0
sVVerifyFlag
p403
I0
sVRemarkPYQuanPin
p404
g52
sVHeadImgUrl
p405
V/cgi-bin/mmwebwx-bin/webwxgeticon?seq=663302256&username=@7a8246a48903f7cabc028368c1e69413b744916bbca04dca9bdcbfca649535d2&skey=@crypt_ad68d827_8252494760d3ea552c903e9d1b24eb1a
p406
sVKeyWord
p407
g52
sVProvince
p408
V\u6e56\u5357
p409
sVPYInitial
p410
VXMBB
p411
sVRemarkName
p412
g52
sVIsOwner
p413
I0
sVSex
p414
I2
sVStarFriend
p415
I0
sVHideInputBarFlag
p416
I0
sVChatRoomId
p417
I0
sVEncryChatRoomId
p418
g52
sVAttrStatus
p419
I100453
sVStatues
p420
I0
stp421
Rp422
I1
bag34
(g38
g39
(dp423
VUserName
p424
V@c5dccda54169c48de0d40f7ee5d19552
p425
sVCity
p426
V\u6e58\u6f6d
p427
sVSnsFlag
p428
I17
sVDisplayName
p429
g52
sVUniFriend
p430
I0
sVMemberCount
p431
I0
sVOwnerUin
p432
I0
sVMemberList
p433
g50
sVAlias
p434
g52
sVPYQuanPin
p435
Vyinshuai
p436
sVSignature
p437
g52
sVRemarkPYInitial
p438
g52
sVContactFlag
p439
I3
sVUin
p440
I0
sVNickName
p441
V\u5c39\u5e05
p442
sVAppAccountFlag
p443
I0
sVVerifyFlag
p444
I0
sVRemarkPYQuanPin
p445
g52
sVHeadImgUrl
p446
V/cgi-bin/mmwebwx-bin/webwxgeticon?seq=674291374&username=@c5dccda54169c48de0d40f7ee5d19552&skey=@crypt_ad68d827_8252494760d3ea552c903e9d1b24eb1a
p447
sVKeyWord
p448
Vyin
p449
sVProvince
p450
V\u6e56\u5357
p451
sVPYInitial
p452
VYS
p453
sVRemarkName
p454
g52
sVIsOwner
p455
I0
sVSex
p456
I1
sVStarFriend
p457
I0
sVHideInputBarFlag
p458
I0
sVChatRoomId
p459
I0
sVEncryChatRoomId
p460
g52
sVAttrStatus
p461
I102439
sVStatues
p462
I0
stp463
Rp464
I1
bag34
(g38
g39
(dp465
VUserName
p466
V@40de76e368675e69c97f337ee68de7bc
p467
sVCity
p468
g52
sVSnsFlag
p469
I177
sVDisplayName
p470
g52
sVUniFriend
p471
I0
sVMemberCount
p472
I0
sVOwnerUin
p473
I0
sVMemberList
p474
g50
sVAlias
p475
g52
sVPYQuanPin
p476
VcaicaiCC
p477
sVSignature
p478
g52
sVRemarkPYInitial
p479
g52
sVContactFlag
p480
I3
sVUin
p481
I0
sVNickName
p482
V\u8521\u8521CC
p483
sVAppAccountFlag
p484
I0
sVVerifyFlag
p485
I0
sVRemarkPYQuanPin
p486
g52
sVHeadImgUrl
p487
V/cgi-bin/mmwebwx-bin/webwxgeticon?seq=663300682&username=@40de76e368675e69c97f337ee68de7bc&skey=@crypt_ad68d827_8252494760d3ea552c903e9d1b24eb1a
p488
sVKeyWord
p489
Vcai
p490
sVProvince
p491
g52
sVPYInitial
p492
VCCCC
p493
sVRemarkName
p494
g52
sVIsOwner
p495
I0
sVSex
p496
I2
sVStarFriend
p497
I0
sVHideInputBarFlag
p498
I0
sVChatRoomId
p499
I0
sVEncryChatRoomId
p500
g52
sVAttrStatus
p501
I103525
sVStatues
p502
I0
stp503
Rp504
I1
bag34
(g38
g39
(dp505
VUserName
p506
V@890b7f618f05ff67be33a4e8db4f143970afef2f0fbe2fb3da47abb2e9119579
p507
sVCity
p508
V\u957f\u6c99
p509
sVSnsFlag
p510
I145
sVDisplayName
p511
g52
sVUniFriend
p512
I0
sVMemberCount
p513
I0
sVOwnerUin
p514
I0
sVMemberList
p515
g50
sVAlias
p516
g52
sVPYQuanPin
p517
Vjons
p518
sVSignature
p519
V\u4f18\u5f39\u7d20\uff5e\u53cc\u86cb\u767d\u3001\u624d\u5e74\u8f7b<span class="emoji emoji1f339"></span>
p520
sVRemarkPYInitial
p521
g52
sVContactFlag
p522
I3
sVUin
p523
I0
sVNickName
p524
Vjons
p525
sVAppAccountFlag
p526
I0
sVVerifyFlag
p527
I0
sVRemarkPYQuanPin
p528
g52
sVHeadImgUrl
p529
V/cgi-bin/mmwebwx-bin/webwxgeticon?seq=674291388&username=@890b7f618f05ff67be33a4e8db4f143970afef2f0fbe2fb3da47abb2e9119579&skey=@crypt_ad68d827_8252494760d3ea552c903e9d1b24eb1a
p530
sVKeyWord
p531
g52
sVProvince
p532
V\u6e56\u5357
p533
sVPYInitial
p534
VJONS
p535
sVRemarkName
p536
g52
sVIsOwner
p537
I0
sVSex
p538
I2
sVStarFriend
p539
I0
sVHideInputBarFlag
p540
I0
sVChatRoomId
p541
I0
sVEncryChatRoomId
p542
g52
sVAttrStatus
p543
I2147586149
sVStatues
p544
I0
stp545
Rp546
I1
batp547
Rp548
I1
bsS'chatroomList'
p549
g34
(g35
g36
(lp550
g34
(citchat.storage.templates
Chatroom
p551
g39
(dp552
VUserName
p553
V@@9116c19ee1b2ffbb5ba293e4ad24281732921ce9db2f4ffa1c72b9b64a6e45bf
p554
sVCity
p555
g52
sVDisplayName
p556
g52
sVUniFriend
p557
I0
sS'Self'
p558
g34
(g38
g39
(dp559
g41
g31
sg42
g43
sg44
g43
sg45
I0
sg46
I0
sg47
g34
(g35
g36
(lp560
tp561
Rp562
I1
bsg51
g52
sg53
g52
sg54
I1381777820
sg55
I0
sg56
I0
sg57
g43
sg58
g43
sg59
g52
sg60
g52
sg61
I0
sg62
I0
sg63
I1
sg64
g43
sg65
I0
sg66
I49
sg67
I0
sg68
I0
sg69
g43
sg70
g52
sg71
I0
sg72
g73
sg74
g52
sg75
g76
sg77
I2
sg78
I0
sg79
I0
stp563
Rp564
I1
bsVMemberList
p565
g34
(g35
g36
(lp566
tp567
Rp568
I1
bsVPYQuanPin
p569
Vlaoganbuyuyuezhongxin
p570
sVRemarkPYInitial
p571
g52
sVSex
p572
I0
sVAppAccountFlag
p573
I0
sVVerifyFlag
p574
I0
sVProvince
p575
g52
sVKeyWord
p576
g52
sVRemarkName
p577
g52
sVPYInitial
p578
VLGBYYZX
p579
sVIsOwner
p580
I0
sVChatRoomId
p581
I0
sVHideInputBarFlag
p582
I0
sVEncryChatRoomId
p583
g52
sVAttrStatus
p584
I0
sVSnsFlag
p585
I0
sVMemberCount
p586
I7
sVOwnerUin
p587
I0
sVAlias
p588
g52
sS'IsAdmin'
p589
NsVSignature
p590
g52
sVContactFlag
p591
I3
sVNickName
p592
V\u8001\u5e72\u90e8\u5a31\u4e50\u4e2d\u5fc3
p593
sVRemarkPYQuanPin
p594
g52
sVHeadImgUrl
p595
V/cgi-bin/mmwebwx-bin/webwxgetheadimg?seq=663302267&username=@@9116c19ee1b2ffbb5ba293e4ad24281732921ce9db2f4ffa1c72b9b64a6e45bf&skey=@crypt_ad68d827_8252494760d3ea552c903e9d1b24eb1a
p596
sVUin
p597
I0
sVStarFriend
p598
I0
sVStatues
p599
I0
stp600
Rp601
I1
batp602
Rp603
I1
bsS'nickName'
p604
g73
sS'mpList'
p605
g34
(g35
g36
(lp606
g34
(citchat.storage.templates
MassivePlatform
p607
g39
(dp608
VUserName
p609
V@e61cca960421750bde2cdbbf025af2ab
p610
sVCity
p611
V\u897f\u57ce
p612
sVSnsFlag
p613
I0
sVDisplayName
p614
g52
sVUniFriend
p615
I0
sVMemberCount
p616
I0
sVOwnerUin
p617
I0
sVMemberList
p618
g50
sVAlias
p619
g52
sVPYQuanPin
p620
Vdengluxinsanban
p621
sVSignature
p622
V\u767b\u9646\u65b0\u4e09\u677f\uff0c\u8d44\u8baf\u3001\u6302\u724c\u3001\u878d\u8d44\u3001\u8def\u6f14\u3001\u57f9\u8bad\uff0c\u65b0\u4e09\u677f\u4e13\u4e1a\u670d\u52a1\u5e73\u53f0
p623
sVRemarkPYInitial
p624
g52
sVContactFlag
p625
I3
sVUin
p626
I0
sVNickName
p627
V\u767b\u9646\u65b0\u4e09\u677f
p628
sVAppAccountFlag
p629
I0
sVVerifyFlag
p630
I24
sVRemarkPYQuanPin
p631
g52
sVHeadImgUrl
p632
V/cgi-bin/mmwebwx-bin/webwxgeticon?seq=663294269&username=@e61cca960421750bde2cdbbf025af2ab&skey=@crypt_ad68d827_8252494760d3ea552c903e9d1b24eb1a
p633
sVKeyWord
p634
Vgh_
p635
sVProvince
p636
V\u5317\u4eac
p637
sVPYInitial
p638
VDLXSB
p639
sVRemarkName
p640
g52
sVIsOwner
p641
I0
sVSex
p642
I0
sVStarFriend
p643
I0
sVHideInputBarFlag
p644
I0
sVChatRoomId
p645
I0
sVEncryChatRoomId
p646
g52
sVAttrStatus
p647
I0
sVStatues
p648
I0
stp649
Rp650
I1
bag34
(g607
g39
(dp651
VUserName
p652
V@98b40e44e39dd280194faa76d40e5026
p653
sVCity
p654
V\u957f\u6c99
p655
sVSnsFlag
p656
I0
sVDisplayName
p657
g52
sVUniFriend
p658
I0
sVMemberCount
p659
I0
sVOwnerUin
p660
I0
sVMemberList
p661
g50
sVAlias
p662
g52
sVPYQuanPin
p663
Vjiaoyuanzhaopin
p664
sVSignature
p665
V\u516c\u53f8\u9762\u5411\u9ad8\u6821\u62db\u8058\u4e34\u65f6\u5de5\u4f5c\u4eba\u5458\uff0c\u6709\u65f6\u95f4\u505a\u5de5\u4f5c\u7684\u540c\u5b66\u53ef\u4ee5\u6309\u63d0\u793a\u56de\u590d\u4fe1\u606f
p666
sVRemarkPYInitial
p667
g52
sVContactFlag
p668
I1
sVUin
p669
I0
sVNickName
p670
V\u6821\u56ed\u62db\u8058
p671
sVAppAccountFlag
p672
I0
sVVerifyFlag
p673
I8
sVRemarkPYQuanPin
p674
g52
sVHeadImgUrl
p675
V/cgi-bin/mmwebwx-bin/webwxgeticon?seq=620100042&username=@98b40e44e39dd280194faa76d40e5026&skey=@crypt_ad68d827_8252494760d3ea552c903e9d1b24eb1a
p676
sVKeyWord
p677
Vgh_
p678
sVProvince
p679
V\u6e56\u5357
p680
sVPYInitial
p681
VJYZP
p682
sVRemarkName
p683
g52
sVIsOwner
p684
I0
sVSex
p685
I0
sVStarFriend
p686
I0
sVHideInputBarFlag
p687
I0
sVChatRoomId
p688
I0
sVEncryChatRoomId
p689
g52
sVAttrStatus
p690
I0
sVStatues
p691
I0
stp692
Rp693
I1
bag34
(g607
g39
(dp694
VUserName
p695
V@b9e243edeac2693946bec61da79ee91f
p696
sVCity
p697
V\u6df1\u5733
p698
sVSnsFlag
p699
I0
sVDisplayName
p700
g52
sVUniFriend
p701
I0
sVMemberCount
p702
I0
sVOwnerUin
p703
I0
sVMemberList
p704
g50
sVAlias
p705
g52
sVPYQuanPin
p706
g52
sVSignature
p707
V\u8fd9\u91cc\u8bb0\u5f55\u60a8\u4e0e\u597d\u53cb\u7cbe\u5f69\u77ac\u95f4\uff0c\u66f4\u6709\u5929\u4e0b\u70ed\u70b9\u52a8\u6001\u3001\u767e\u59d3\u751f\u6d3b\u65b0\u9c9c\u4e8b\u4e3a\u60a8\u5448\u73b0\u3002\u817e\u8baf\u5fae\u535a\u4e0e\u60a8\u5e76\u80a9\u770b\u4e16\u754c\u3002
p708
sVRemarkPYInitial
p709
g52
sVContactFlag
p710
I1
sVUin
p711
I0
sVNickName
p712
g52
sVAppAccountFlag
p713
I0
sVVerifyFlag
p714
I24
sVRemarkPYQuanPin
p715
g52
sVHeadImgUrl
p716
V/cgi-bin/mmwebwx-bin/webwxgeticon?seq=620960076&username=@b9e243edeac2693946bec61da79ee91f&skey=@crypt_ad68d827_8252494760d3ea552c903e9d1b24eb1a
p717
sVKeyWord
p718
Vgh_
p719
sVProvince
p720
V\u5e7f\u4e1c
p721
sVPYInitial
p722
g52
sVRemarkName
p723
g52
sVIsOwner
p724
I0
sVSex
p725
I0
sVStarFriend
p726
I0
sVHideInputBarFlag
p727
I0
sVChatRoomId
p728
I0
sVEncryChatRoomId
p729
g52
sVAttrStatus
p730
I0
sVStatues
p731
I0
stp732
Rp733
I1
bag34
(g607
g39
(dp734
VUserName
p735
V@429c953230fcf03bb4e3989d14f9a352
p736
sVCity
p737
V\u666e\u9640
p738
sVSnsFlag
p739
I0
sVDisplayName
p740
g52
sVUniFriend
p741
I0
sVMemberCount
p742
I0
sVOwnerUin
p743
I0
sVMemberList
p744
g50
sVAlias
p745
g52
sVPYQuanPin
p746
VEWEwuliu
p747
sVSignature
p748
VEWE\u5ba2\u6237\u670d\u52a1\u5e73\u53f0
p749
sVRemarkPYInitial
p750
g52
sVContactFlag
p751
I1
sVUin
p752
I0
sVNickName
p753
VEWE\u7269\u6d41
p754
sVAppAccountFlag
p755
I0
sVVerifyFlag
p756
I24
sVRemarkPYQuanPin
p757
g52
sVHeadImgUrl
p758
V/cgi-bin/mmwebwx-bin/webwxgeticon?seq=653358994&username=@429c953230fcf03bb4e3989d14f9a352&skey=@crypt_ad68d827_8252494760d3ea552c903e9d1b24eb1a
p759
sVKeyWord
p760
Vgh_
p761
sVProvince
p762
V\u4e0a\u6d77
p763
sVPYInitial
p764
VEWEWL
p765
sVRemarkName
p766
g52
sVIsOwner
p767
I0
sVSex
p768
I0
sVStarFriend
p769
I0
sVHideInputBarFlag
p770
I0
sVChatRoomId
p771
I0
sVEncryChatRoomId
p772
g52
sVAttrStatus
p773
I0
sVStatues
p774
I0
stp775
Rp776
I1
bag34
(g607
g39
(dp777
VUserName
p778
V@f37f92463dc7ef4d646369062035b01d
p779
sVCity
p780
V\u957f\u6c99
p781
sVSnsFlag
p782
I0
sVDisplayName
p783
g52
sVUniFriend
p784
I0
sVMemberCount
p785
I0
sVOwnerUin
p786
I0
sVMemberList
p787
g50
sVAlias
p788
g52
sVPYQuanPin
p789
Vchangshazhaojichuancheng
p790
sVSignature
p791
V\u54c1\u724c\u4f20\u64ad\uff0c\u5e7f\u544a\u53d1\u5e03
p792
sVRemarkPYInitial
p793
g52
sVContactFlag
p794
I1
sVUin
p795
I0
sVNickName
p796
V\u957f\u6c99\u8d75\u8bb0\u4f20\u627f
p797
sVAppAccountFlag
p798
I0
sVVerifyFlag
p799
I24
sVRemarkPYQuanPin
p800
g52
sVHeadImgUrl
p801
V/cgi-bin/mmwebwx-bin/webwxgeticon?seq=663299898&username=@f37f92463dc7ef4d646369062035b01d&skey=@crypt_ad68d827_8252494760d3ea552c903e9d1b24eb1a
p802
sVKeyWord
p803
Vgh_
p804
sVProvince
p805
V\u6e56\u5357
p806
sVPYInitial
p807
VCSZJCC
p808
sVRemarkName
p809
g52
sVIsOwner
p810
I0
sVSex
p811
I0
sVStarFriend
p812
I0
sVHideInputBarFlag
p813
I0
sVChatRoomId
p814
I0
sVEncryChatRoomId
p815
g52
sVAttrStatus
p816
I0
sVStatues
p817
I0
stp818
Rp819
I1
bag34
(g607
g39
(dp820
VUserName
p821
V@4c42221074ab4d39421859fc1b4c3279
p822
sVCity
p823
V\u5e7f\u5dde
p824
sVSnsFlag
p825
I0
sVDisplayName
p826
g52
sVUniFriend
p827
I0
sVMemberCount
p828
I0
sVOwnerUin
p829
I0
sVMemberList
p830
g50
sVAlias
p831
g52
sVPYQuanPin
p832
Vweixinyundong
p833
sVSignature
p834
V\u4e5f\u8bb8\u4f60\u65e9\u5df2\u4e60\u60ef\u4e00\u4e2a\u4eba\u8fd0\u52a8\u7684\u5b64\u72ec\uff0c\u5374\u4e5f\u5076\u5c14\u6e34\u671b\u5f97\u5230\u8d5e\u8d4f\u3002\u52a0\u5165\u5fae\u4fe1\u8fd0\u52a8\uff0c\u548c\u670b\u53cb\u4e00\u8d77\u70b9\u8d5e\u4e92\u52a8\u3001\u62a2\u5360\u5c01\u9762\uff0c\u5206\u4eab\u8fd0\u52a8\u7684\u5feb\u4e50\u3002
p835
sVRemarkPYInitial
p836
g52
sVContactFlag
p837
I1
sVUin
p838
I0
sVNickName
p839
V\u5fae\u4fe1\u8fd0\u52a8
p840
sVAppAccountFlag
p841
I0
sVVerifyFlag
p842
I24
sVRemarkPYQuanPin
p843
g52
sVHeadImgUrl
p844
V/cgi-bin/mmwebwx-bin/webwxgeticon?seq=663300634&username=@4c42221074ab4d39421859fc1b4c3279&skey=@crypt_ad68d827_8252494760d3ea552c903e9d1b24eb1a
p845
sVKeyWord
p846
Vgh_
p847
sVProvince
p848
V\u5e7f\u4e1c
p849
sVPYInitial
p850
VWXYD
p851
sVRemarkName
p852
g52
sVIsOwner
p853
I0
sVSex
p854
I0
sVStarFriend
p855
I0
sVHideInputBarFlag
p856
I0
sVChatRoomId
p857
I0
sVEncryChatRoomId
p858
g52
sVAttrStatus
p859
I0
sVStatues
p860
I0
stp861
Rp862
I1
bag34
(g607
g39
(dp863
VUserName
p864
V@46f63ad878ea0dfa38f753a147cb9b46
p865
sVCity
p866
V\u4e30\u53f0
p867
sVSnsFlag
p868
I0
sVDisplayName
p869
g52
sVUniFriend
p870
I0
sVMemberCount
p871
I0
sVOwnerUin
p872
I0
sVMemberList
p873
g50
sVAlias
p874
g52
sVPYQuanPin
p875
V51nuoche
p876
sVSignature
p877
V\u653e\u5fc3\u505c\u9760\uff0c\u8ba9\u8f66\u4e3b\u624b\u673a\u53f7\u7801\u65e0\u201c\u6cc4\u201d\u53ef\u673a\u3002
p878
sVRemarkPYInitial
p879
g52
sVContactFlag
p880
I1
sVUin
p881
I0
sVNickName
p882
V51\u632a\u8f66
p883
sVAppAccountFlag
p884
I0
sVVerifyFlag
p885
I24
sVRemarkPYQuanPin
p886
g52
sVHeadImgUrl
p887
V/cgi-bin/mmwebwx-bin/webwxgeticon?seq=663301024&username=@46f63ad878ea0dfa38f753a147cb9b46&skey=@crypt_ad68d827_8252494760d3ea552c903e9d1b24eb1a
p888
sVKeyWord
p889
Vgh_
p890
sVProvince
p891
V\u5317\u4eac
p892
sVPYInitial
p893
V51NC
p894
sVRemarkName
p895
g52
sVIsOwner
p896
I0
sVSex
p897
I0
sVStarFriend
p898
I0
sVHideInputBarFlag
p899
I0
sVChatRoomId
p900
I0
sVEncryChatRoomId
p901
g52
sVAttrStatus
p902
I0
sVStatues
p903
I0
stp904
Rp905
I1
bag34
(g607
g39
(dp906
VUserName
p907
V@85fd6dbd3319c9f64560aa52f3b0e09a
p908
sVCity
p909
V\u5f90\u6c47
p910
sVSnsFlag
p911
I0
sVDisplayName
p912
g52
sVUniFriend
p913
I0
sVMemberCount
p914
I0
sVOwnerUin
p915
I0
sVMemberList
p916
g50
sVAlias
p917
g52
sVPYQuanPin
p918
Vdaojucheng
p919
sVSignature
p920
V\u817e\u8baf\u6e38\u620f\uff0d\u9053\u805a\u57ce\uff0c\u63a8\u8350\u6700\u65b0\u6700\u4f18\u60e0\u7684\u9053\u5177\u6d3b\u52a8\u4fe1\u606f\uff0c\u53d1\u653e\uff31\u5e01\u3001\u4f18\u60e0\u5238\u3001\u514d\u5355\u798f\u5229\u3002\u9ad8\u7aef\u5927\u6c14\u4e0a\u6863\u6b21\uff0c\u6253\u9020\u5168\u7f51\u6700\u4f4e\u7684\u9053\u5177\u5e73\u53f0\uff01
p921
sVRemarkPYInitial
p922
g52
sVContactFlag
p923
I3
sVUin
p924
I0
sVNickName
p925
V\u9053\u805a\u57ce
p926
sVAppAccountFlag
p927
I0
sVVerifyFlag
p928
I24
sVRemarkPYQuanPin
p929
g52
sVHeadImgUrl
p930
V/cgi-bin/mmwebwx-bin/webwxgeticon?seq=663301046&username=@85fd6dbd3319c9f64560aa52f3b0e09a&skey=@crypt_ad68d827_8252494760d3ea552c903e9d1b24eb1a
p931
sVKeyWord
p932
Vgh_
p933
sVProvince
p934
V\u4e0a\u6d77
p935
sVPYInitial
p936
VDJC
p937
sVRemarkName
p938
g52
sVIsOwner
p939
I0
sVSex
p940
I0
sVStarFriend
p941
I0
sVHideInputBarFlag
p942
I0
sVChatRoomId
p943
I0
sVEncryChatRoomId
p944
g52
sVAttrStatus
p945
I0
sVStatues
p946
I0
stp947
Rp948
I1
bag34
(g607
g39
(dp949
VUserName
p950
V@1c7907040ee81ba872e965e9d8aa8e8ce1b8cff12d2d3a5f479c8329b7f1d983
p951
sVCity
p952
V\u671d\u9633
p953
sVSnsFlag
p954
I0
sVDisplayName
p955
g52
sVUniFriend
p956
I0
sVMemberCount
p957
I0
sVOwnerUin
p958
I0
sVMemberList
p959
g50
sVAlias
p960
g52
sVPYQuanPin
p961
Vmeituan
p962
sVSignature
p963
V\u7f8e\u56e2\u670d\u52a1\u53f7\uff0c\u5403\u559d\u73a9\u4e50\u5168\u90fd\u6709\u3002\u7cbe\u9009\u4f18\u8d28\u5546\u5bb6\u5c31\u7b49\u4f60\u6765\uff0c\u5927\u989d\u7ea2\u5305\u798f\u5229\u5c31\u7b49\u4f60\u62a2\u3002\u9910\u5385\u7f8e\u98df\u3001\u5916\u5356\u3001\u7535\u5f71\u8d2d\u7968\u3001\u9152\u5e97\u65c5\u6e38\u3001\u4f11\u95f2\u5a31\u4e50\uff0c\u8fd8\u6709\u4ec0\u4e48\u5417\uff1f\u5173\u6ce8\u6211\u4eec\u5c31\u77e5\u9053\u4e86\uff01
p964
sVRemarkPYInitial
p965
g52
sVContactFlag
p966
I3
sVUin
p967
I0
sVNickName
p968
V\u7f8e\u56e2
p969
sVAppAccountFlag
p970
I0
sVVerifyFlag
p971
I24
sVRemarkPYQuanPin
p972
g52
sVHeadImgUrl
p973
V/cgi-bin/mmwebwx-bin/webwxgeticon?seq=663301147&username=@1c7907040ee81ba872e965e9d8aa8e8ce1b8cff12d2d3a5f479c8329b7f1d983&skey=@crypt_ad68d827_8252494760d3ea552c903e9d1b24eb1a
p974
sVKeyWord
p975
g52
sVProvince
p976
V\u5317\u4eac
p977
sVPYInitial
p978
VMT
p979
sVRemarkName
p980
g52
sVIsOwner
p981
I0
sVSex
p982
I0
sVStarFriend
p983
I0
sVHideInputBarFlag
p984
I0
sVChatRoomId
p985
I0
sVEncryChatRoomId
p986
g52
sVAttrStatus
p987
I0
sVStatues
p988
I0
stp989
Rp990
I1
bag34
(g607
g39
(dp991
VUserName
p992
V@068bf51cfe96efbf50a578f07ad3246b
p993
sVCity
p994
V\u5e7f\u5dde
p995
sVSnsFlag
p996
I0
sVDisplayName
p997
g52
sVUniFriend
p998
I0
sVMemberCount
p999
I0
sVOwnerUin
p1000
I0
sVMemberList
p1001
g50
sVAlias
p1002
g52
sVPYQuanPin
p1003
Vzhongbiaoyi
p1004
sVSignature
p1005
V\u4e2d\u6807\u6613\uff0c\u662f\u4e13\u4e1a\u7684\u62db\u6295\u6807\u4fe1\u606f\u670d\u52a1\u5e73\u53f0\uff0c \u65e8\u5728\u5e2e\u52a9\u5546\u52a1\u4eba\u5458\u7b2c\u4e00\u65f6\u95f4\u638c\u63e1\u62db\u6807\u52a8\u6001\uff0c \u4e3a\u7528\u6237\u63d0\u4f9b\u5546\u673a\u4fe1\u606f\u201c\u5386\u53f2\u68c0\u7d22\u3001\u5173\u952e\u8bcd\u8ba2\u9605\u3001\u5b9e\u65f6\u63a8\u9001\u3001\u5173\u6ce8\u7ba1\u7406\u201d\u7b49\u529f\u80fd\uff0c \u89e3\u51b3\u62db\u6295\u6807\u8fc7\u7a0b\u4e2d\u201c\u8017\u65f6\u641c\u6807\u3001\u6f0f\u6807\u4e22\u6807\u201d\u7684\u95ee\u9898\u3002  \u2014\u2014\u4e2d\u6807\u6613\uff0c\u52a9\u60a8\u6613\u4e2d\u6807\uff01
p1006
sVRemarkPYInitial
p1007
g52
sVContactFlag
p1008
I3
sVUin
p1009
I0
sVNickName
p1010
V\u4e2d\u6807\u6613
p1011
sVAppAccountFlag
p1012
I0
sVVerifyFlag
p1013
I24
sVRemarkPYQuanPin
p1014
g52
sVHeadImgUrl
p1015
V/cgi-bin/mmwebwx-bin/webwxgeticon?seq=674611379&username=@068bf51cfe96efbf50a578f07ad3246b&skey=@crypt_ad68d827_8252494760d3ea552c903e9d1b24eb1a
p1016
sVKeyWord
p1017
Vgh_
p1018
sVProvince
p1019
V\u5e7f\u4e1c
p1020
sVPYInitial
p1021
VZBY
p1022
sVRemarkName
p1023
g52
sVIsOwner
p1024
I0
sVSex
p1025
I0
sVStarFriend
p1026
I0
sVHideInputBarFlag
p1027
I0
sVChatRoomId
p1028
I0
sVEncryChatRoomId
p1029
g52
sVAttrStatus
p1030
I0
sVStatues
p1031
I0
stp1032
Rp1033
I1
batp1034
Rp1035
I1
bssS'loginInfo'
p1036
(dp1037
S'SyncKey'
p1038
(dp1039
VCount
p1040
I4
sVList
p1041
(lp1042
(dp1043
VVal
p1044
I674611624
sVKey
p1045
I1
sa(dp1046
VVal
p1047
I674611768
sVKey
p1048
I2
sa(dp1049
VVal
p1050
I674611379
sVKey
p1051
I3
sa(dp1052
VVal
p1053
I1516877752
sVKey
p1054
I1000
sassS'syncUrl'
p1055
S'https://webpush.wx.qq.com/cgi-bin/mmwebwx-bin'
p1056
sS'skey'
p1057
V@crypt_ad68d827_8252494760d3ea552c903e9d1b24eb1a
p1058
sS'wxuin'
p1059
V1381777820
p1060
sS'synckey'
p1061
S'1_674611624|2_674611768|3_674611379|1000_1516877752'
p1062
sS'url'
p1063
Vhttps://wx.qq.com/cgi-bin/mmwebwx-bin
p1064
sS'pass_ticket'
p1065
V4ZcJTXcGoYpAdcR4%2FsWqFFo0IB9S2u%2BCwHXVealS5c6owc6YY8B4z4wEaHttSXPd
p1066
sS'wxsid'
p1067
VbYep9l66fn52Dv9C
p1068
sS'User'
p1069
g34
(g38
g39
(dp1070
g41
g31
sg42
g43
sg44
g43
sg45
I0
sg47
g50
sg51
g52
sg53
g52
sg77
I2
sg55
I0
sg56
I0
sg57
g43
sg58
g43
sg59
g52
sg60
g52
sg61
I0
sg62
I0
sg63
I1
sg64
g43
sg65
I0
sg68
I0
sg66
I49
sg67
I0
sg46
I0
sg69
g43
sg70
g52
sg71
I0
sg72
g73
sg74
g52
sg75
g76
sg54
I1381777820
sg78
I0
sg79
I0
stp1071
Rp1072
I1
bsS'InviteStartCount'
p1073
I40
sS'fileUrl'
p1074
S'https://file.wx.qq.com/cgi-bin/mmwebwx-bin'
p1075
sS'BaseRequest'
p1076
(dp1077
g54
g1060
sS'Skey'
p1078
g1058
sS'DeviceID'
p1079
g1066
sS'Sid'
p1080
g1068
ssS'deviceid'
p1081
S'e703913845742846'
p1082
ss.